target datalayout = "e-m:e-p270:32:32-p271:32:32-p272:64:64-i64:64-i128:128-f80:128-n8:16:32:64-S128"
target triple = "x86_64-pc-linux-gnu"

; Function Attrs: nounwind uwtable
define dso_local i32 @PyThread_create_key() #0 {
  %1 = alloca i32, align 4
  %2 = alloca i32, align 4
  %3 = alloca i32, align 4
  %4 = alloca i32, align 4
  call void @llvm.lifetime.start.p0(i64 4, ptr %2) #11
  call void @llvm.lifetime.start.p0(i64 4, ptr %3) #11
  %5 = call i32 @pthread_key_create(ptr noundef %2, ptr noundef null) #11
  store i32 %5, ptr %3, align 4, !tbaa !175
  %6 = load i32, ptr %3, align 4, !tbaa !175
  %7 = icmp ne i32 %6, 0
  br i1 %7, label %8, label %9

8:                                                ; preds = %0
  store i32 -1, ptr %1, align 4
  store i32 1, ptr %4, align 4
  br label %18

9:                                                ; preds = %0
  %10 = load i32, ptr %2, align 4, !tbaa !175
  %11 = icmp ugt i32 %10, 2147483647
  br i1 %11, label %12, label %16

12:                                               ; preds = %9
  %13 = load i32, ptr %2, align 4, !tbaa !175
  %14 = call i32 @pthread_key_delete(i32 noundef %13) #11
  %15 = call ptr @__errno_location() #12
  store i32 12, ptr %15, align 4, !tbaa !175
  store i32 -1, ptr %1, align 4
  store i32 1, ptr %4, align 4
  br label %18

16:                                               ; preds = %9
  %17 = load i32, ptr %2, align 4, !tbaa !175
  store i32 %17, ptr %1, align 4
  store i32 1, ptr %4, align 4
  br label %18

18:                                               ; preds = %16, %12, %8
  call void @llvm.lifetime.end.p0(i64 4, ptr %3) #11
  call void @llvm.lifetime.end.p0(i64 4, ptr %2) #11
  %19 = load i32, ptr %1, align 4
  ret i32 %19
}