; Function Attrs: nounwind uwtable
define dso_local range(i32 -1, -2147483648) i32 @PyThread_create_key() local_unnamed_addr #0 {
  %1 = alloca i32, align 4
  call void @llvm.lifetime.start.p0(i64 4, ptr nonnull %1) #13
  %2 = call i32 @pthread_key_create(ptr noundef nonnull %1, ptr noundef null) #13
  %.not = icmp eq i32 %2, 0
  br i1 %.not, label %3, label %9

3:                                                ; preds = %0
  %4 = load i32, ptr %1, align 4, !tbaa !184
  %5 = icmp slt i32 %4, 0
  br i1 %5, label %6, label %9

6:                                                ; preds = %3
  %7 = call i32 @pthread_key_delete(i32 noundef %4) #13
  %8 = tail call ptr @__errno_location() #14
  store i32 12, ptr %8, align 4, !tbaa !184
  br label %9

9:                                                ; preds = %3, %0, %6
  %.0 = phi i32 [ -1, %6 ], [ -1, %0 ], [ %4, %3 ]
  call void @llvm.lifetime.end.p0(i64 4, ptr nonnull %1) #13
  ret i32 %.0
}